; Function Attrs: nounwind uwtable
define void @png_write_cICP(ptr noalias noundef %0, i8 noundef zeroext %1, i8 noundef zeroext %2, i8 noundef zeroext %3, i8 noundef zeroext %4) local_unnamed_addr #1 {
  %6 = alloca [4 x i8], align 1
  %7 = alloca [8 x i8], align 1
  %8 = alloca [4 x i8], align 1
  call void @llvm.lifetime.start.p0(i64 4, ptr nonnull %8) #12
  tail call void @llvm.experimental.noalias.scope.decl(metadata !166)
  call void @llvm.lifetime.start.p0(i64 8, ptr nonnull %7) #12, !noalias !166
  %9 = icmp eq ptr %0, null
  br i1 %9, label %png_write_chunk_data.exit.thread, label %10

png_write_chunk_data.exit.thread:                 ; preds = %5
  call void @llvm.lifetime.end.p0(i64 8, ptr nonnull %7) #12, !noalias !166
  call void @llvm.lifetime.start.p0(i64 4, ptr nonnull %6) #12, !noalias !169
  br label %png_write_chunk_end.exit

10:                                               ; preds = %5
  %11 = getelementptr inbounds nuw i8, ptr %0, i64 1196
  store i32 34, ptr %11, align 4, !tbaa !6, !alias.scope !166
  store i8 0, ptr %7, align 1, !tbaa !3, !noalias !166
  %12 = getelementptr inbounds nuw i8, ptr %7, i64 1
  store i8 0, ptr %12, align 1, !tbaa !3, !noalias !166
  %13 = getelementptr inbounds nuw i8, ptr %7, i64 2
  store i8 0, ptr %13, align 1, !tbaa !3, !noalias !166
  %14 = getelementptr inbounds nuw i8, ptr %7, i64 3
  store i8 4, ptr %14, align 1, !tbaa !3, !noalias !166
  %15 = getelementptr inbounds nuw i8, ptr %7, i64 4
  store i8 99, ptr %15, align 1, !tbaa !3, !noalias !166
  %16 = getelementptr inbounds nuw i8, ptr %7, i64 5
  store i8 73, ptr %16, align 1, !tbaa !3, !noalias !166
  %17 = getelementptr inbounds nuw i8, ptr %7, i64 6
  store i8 67, ptr %17, align 1, !tbaa !3, !noalias !166
  %18 = getelementptr inbounds nuw i8, ptr %7, i64 7
  store i8 80, ptr %18, align 1, !tbaa !3, !noalias !166
  call void @png_write_data(ptr noundef nonnull %0, ptr noundef nonnull %7, i64 noundef 8) #12
  %19 = getelementptr inbounds nuw i8, ptr %0, i64 544
  store i32 1665745744, ptr %19, align 8, !tbaa !28, !alias.scope !166
  call void @png_reset_crc(ptr noundef nonnull %0) #12
  call void @png_calculate_crc(ptr noundef nonnull %0, ptr noundef nonnull %15, i64 noundef 4) #12
  store i32 66, ptr %11, align 4, !tbaa !6, !alias.scope !166
  call void @llvm.lifetime.end.p0(i64 8, ptr nonnull %7) #12, !noalias !166
  store i8 %1, ptr %8, align 1, !tbaa !3
  %20 = getelementptr inbounds nuw i8, ptr %8, i64 1
  store i8 %2, ptr %20, align 1, !tbaa !3
  %21 = getelementptr inbounds nuw i8, ptr %8, i64 2
  store i8 %3, ptr %21, align 1, !tbaa !3
  %22 = getelementptr inbounds nuw i8, ptr %8, i64 3
  store i8 %4, ptr %22, align 1, !tbaa !3
  call void @png_write_data(ptr noundef nonnull %0, ptr noundef nonnull %8, i64 noundef 4) #12
  call void @png_calculate_crc(ptr noundef nonnull %0, ptr noundef nonnull %8, i64 noundef 4) #12
  call void @llvm.experimental.noalias.scope.decl(metadata !172)
  call void @llvm.lifetime.start.p0(i64 4, ptr nonnull %6) #12, !noalias !172
  store i32 130, ptr %11, align 4, !tbaa !6, !alias.scope !172
  %23 = getelementptr inbounds nuw i8, ptr %0, i64 596
  %24 = load i32, ptr %23, align 4, !tbaa !29, !alias.scope !172
  %25 = lshr i32 %24, 24
  %26 = trunc nuw i32 %25 to i8
  store i8 %26, ptr %6, align 1, !tbaa !3, !noalias !172
  %27 = lshr i32 %24, 16
  %28 = trunc i32 %27 to i8
  %29 = getelementptr inbounds nuw i8, ptr %6, i64 1
  store i8 %28, ptr %29, align 1, !tbaa !3, !noalias !172
  %30 = lshr i32 %24, 8
  %31 = trunc i32 %30 to i8
  %32 = getelementptr inbounds nuw i8, ptr %6, i64 2
  store i8 %31, ptr %32, align 1, !tbaa !3, !noalias !172
  %33 = trunc i32 %24 to i8
  %34 = getelementptr inbounds nuw i8, ptr %6, i64 3
  store i8 %33, ptr %34, align 1, !tbaa !3, !noalias !172
  call void @png_write_data(ptr noundef nonnull %0, ptr noundef nonnull %6, i64 noundef 4) #12
  br label %png_write_chunk_end.exit

png_write_chunk_end.exit:                         ; preds = %png_write_chunk_data.exit.thread, %10
  call void @llvm.lifetime.end.p0(i64 4, ptr nonnull %6) #12, !noalias !172
  call void @llvm.lifetime.end.p0(i64 4, ptr nonnull %8) #12
  ret void
}